target datalayout = "e-m:e-p270:32:32-p271:32:32-p272:64:64-i64:64-i128:128-f80:128-n8:16:32:64-S128"
target triple = "x86_64-pc-linux-gnu"

%union.pthread_mutex_t = type { %struct.__pthread_mutex_s }
%struct.__pthread_mutex_s = type { i32, i32, i32, i32, i32, i16, i16, %struct.__pthread_internal_list }
%struct.__pthread_internal_list = type { ptr, ptr }
%struct.slurmdbd_conn_t = type { ptr, ptr, %union.pthread_mutex_t, ptr, ptr }
%struct.persist_conn_t = type { ptr, i32, i32, i8, ptr, ptr, ptr, i64, i16, i32, i16, i8, i32, i32, ptr, i16, ptr, i64, i32, ptr, %struct.slurm_trigger_callbacks_t, i16 }
%struct.slurm_trigger_callbacks_t = type { ptr, ptr, ptr, ptr, ptr }
%struct.persist_msg_t = type { ptr, ptr, i16 }
%struct.dbd_list_msg_t = type { ptr, i32 }

@.str.66 = private unnamed_addr constant [34 x i8] c"DBD_GET_CONFIG: called in CONN %d\00", align 1
@.str.67 = private unnamed_addr constant [14 x i8] c"slurmdbd.conf\00", align 1

; Function Attrs: nounwind uwtable
define internal i32 @_get_config(ptr noundef %0, ptr noundef %1, ptr noundef %2) #0 {
  %4 = alloca i32, align 4
  %5 = alloca ptr, align 8
  %6 = alloca ptr, align 8
  %7 = alloca ptr, align 8
  %8 = alloca ptr, align 8
  %9 = alloca %struct.dbd_list_msg_t, align 8
  %10 = alloca i32, align 4
  store ptr %0, ptr %5, align 8
  store ptr %1, ptr %6, align 8
  store ptr %2, ptr %7, align 8
  call void @llvm.lifetime.start.p0(i64 8, ptr %8) #8
  %11 = load ptr, ptr %6, align 8
  %12 = getelementptr inbounds nuw %struct.persist_msg_t, ptr %11, i32 0, i32 1
  %13 = load ptr, ptr %12, align 8
  store ptr %13, ptr %8, align 8
  call void @llvm.lifetime.start.p0(i64 16, ptr %9) #8
  call void @llvm.memset.p0.i64(ptr align 8 %9, i8 0, i64 16, i1 false)
  br label %14

14:                                               ; preds = %3
  br label %15

15:                                               ; preds = %14
  %16 = call i32 @get_log_level()
  %17 = icmp sge i32 %16, 6
  br i1 %17, label %18, label %24

18:                                               ; preds = %15
  %19 = load ptr, ptr %5, align 8
  %20 = getelementptr inbounds nuw %struct.slurmdbd_conn_t, ptr %19, i32 0, i32 0
  %21 = load ptr, ptr %20, align 8
  %22 = getelementptr inbounds nuw %struct.persist_conn_t, ptr %21, i32 0, i32 9
  %23 = load i32, ptr %22, align 4
  call void (i32, ptr, ...) @log_var(i32 noundef 6, ptr noundef @.str.66, i32 noundef %23)
  br label %24

24:                                               ; preds = %18, %15
  br label %25

25:                                               ; preds = %24
  br label %26

26:                                               ; preds = %25
  br label %27

27:                                               ; preds = %26
  br label %28

28:                                               ; preds = %27
  %29 = load ptr, ptr %8, align 8
  %30 = icmp eq ptr %29, null
  br i1 %30, label %35, label %31

31:                                               ; preds = %28
  %32 = load ptr, ptr %8, align 8
  %33 = call i32 @xstrcmp(ptr noundef %32, ptr noundef @.str.67)
  %34 = icmp eq i32 %33, 0
  br i1 %34, label %35, label %38

35:                                               ; preds = %31, %28
  %36 = call ptr @dump_config()
  %37 = getelementptr inbounds nuw %struct.dbd_list_msg_t, ptr %9, i32 0, i32 0
  store ptr %36, ptr %37, align 8
  br label %58

38:                                               ; preds = %31
  %39 = load ptr, ptr %5, align 8
  %40 = getelementptr inbounds nuw %struct.slurmdbd_conn_t, ptr %39, i32 0, i32 3
  %41 = load ptr, ptr %40, align 8
  %42 = load ptr, ptr %8, align 8
  %43 = call ptr @acct_storage_g_get_config(ptr noundef %41, ptr noundef %42)
  %44 = getelementptr inbounds nuw %struct.dbd_list_msg_t, ptr %9, i32 0, i32 0
  store ptr %43, ptr %44, align 8
  %45 = icmp eq ptr %43, null
  br i1 %45, label %46, label %57

46:                                               ; preds = %38
  %47 = load ptr, ptr %5, align 8
  %48 = getelementptr inbounds nuw %struct.slurmdbd_conn_t, ptr %47, i32 0, i32 0
  %49 = load ptr, ptr %48, align 8
  %50 = call ptr @__errno_location() #10
  %51 = load i32, ptr %50, align 4
  %52 = call ptr @__errno_location() #10
  %53 = load i32, ptr %52, align 4
  %54 = call ptr @slurm_strerror(i32 noundef %53)
  %55 = call ptr @slurm_persist_make_rc_msg(ptr noundef %49, i32 noundef %51, ptr noundef %54, i16 noundef zeroext 1466)
  %56 = load ptr, ptr %7, align 8
  store ptr %55, ptr %56, align 8
  call void @slurm_xfree(ptr noundef %8)
  store i32 -1, ptr %4, align 4
  store i32 1, ptr %10, align 4
  br label %81

57:                                               ; preds = %38
  br label %58

58:                                               ; preds = %57, %35
  %59 = call ptr @init_buf(i32 noundef 1024)
  %60 = load ptr, ptr %7, align 8
  store ptr %59, ptr %60, align 8
  %61 = load ptr, ptr %7, align 8
  %62 = load ptr, ptr %61, align 8
  call void @pack16(i16 noundef zeroext 1467, ptr noundef %62)
  %63 = load ptr, ptr %5, align 8
  %64 = getelementptr inbounds nuw %struct.slurmdbd_conn_t, ptr %63, i32 0, i32 0
  %65 = load ptr, ptr %64, align 8
  %66 = getelementptr inbounds nuw %struct.persist_conn_t, ptr %65, i32 0, i32 21
  %67 = load i16, ptr %66, align 8
  %68 = load ptr, ptr %7, align 8
  %69 = load ptr, ptr %68, align 8
  call void @slurmdbd_pack_list_msg(ptr noundef %9, i16 noundef zeroext %67, i32 noundef 1467, ptr noundef %69)
  br label %70

70:                                               ; preds = %58
  %71 = getelementptr inbounds nuw %struct.dbd_list_msg_t, ptr %9, i32 0, i32 0
  %72 = load ptr, ptr %71, align 8
  %73 = icmp ne ptr %72, null
  br i1 %73, label %74, label %77

74:                                               ; preds = %70
  %75 = getelementptr inbounds nuw %struct.dbd_list_msg_t, ptr %9, i32 0, i32 0
  %76 = load ptr, ptr %75, align 8
  call void @list_destroy(ptr noundef %76)
  br label %77

77:                                               ; preds = %74, %70
  %78 = getelementptr inbounds nuw %struct.dbd_list_msg_t, ptr %9, i32 0, i32 0
  store ptr null, ptr %78, align 8
  br label %79

79:                                               ; preds = %77
  br label %80

80:                                               ; preds = %79
  call void @slurm_xfree(ptr noundef %8)
  store i32 0, ptr %4, align 4
  store i32 1, ptr %10, align 4
  br label %81

81:                                               ; preds = %80, %46
  call void @llvm.lifetime.end.p0(i64 16, ptr %9) #8
  call void @llvm.lifetime.end.p0(i64 8, ptr %8) #8
  %82 = load i32, ptr %4, align 4
  ret i32 %82
}