; Function Attrs: nounwind uwtable
define internal fastcc range(i32 -1, 1) i32 @_get_config(ptr noundef readonly captures(none) %0, ptr %.8.val, ptr noundef captures(none) initializes((0, 8)) %1) unnamed_addr #0 {
  %3 = alloca ptr, align 8
  %4 = alloca %struct.dbd_list_msg_t, align 8
  call void @llvm.lifetime.start.p0(i64 8, ptr nonnull %3) #10
  store ptr %.8.val, ptr %3, align 8
  call void @llvm.lifetime.start.p0(i64 16, ptr nonnull %4) #10
  call void @llvm.memset.p0.i64(ptr noundef nonnull align 8 dereferenceable(16) %4, i8 0, i64 16, i1 false)
  %5 = tail call i32 @get_log_level() #10
  %6 = icmp sgt i32 %5, 5
  br i1 %6, label %7, label %11

7:                                                ; preds = %2
  %8 = load ptr, ptr %0, align 8
  %9 = getelementptr inbounds nuw i8, ptr %8, i64 60
  %10 = load i32, ptr %9, align 4
  tail call void (i32, ptr, ...) @log_var(i32 noundef 6, ptr noundef nonnull @.str.66, i32 noundef %10) #10
  br label %11

11:                                               ; preds = %7, %2
  %12 = icmp eq ptr %.8.val, null
  br i1 %12, label %16, label %13

13:                                               ; preds = %11
  %14 = tail call i32 @xstrcmp(ptr noundef nonnull %.8.val, ptr noundef nonnull @.str.67) #10
  %15 = icmp eq i32 %14, 0
  br i1 %15, label %16, label %18

16:                                               ; preds = %13, %11
  %17 = tail call ptr @dump_config() #10
  store ptr %17, ptr %4, align 8
  br label %29

18:                                               ; preds = %13
  %19 = getelementptr inbounds nuw i8, ptr %0, i64 56
  %20 = load ptr, ptr %19, align 8
  %21 = tail call ptr @acct_storage_g_get_config(ptr noundef %20, ptr noundef nonnull %.8.val) #10
  store ptr %21, ptr %4, align 8
  %22 = icmp eq ptr %21, null
  br i1 %22, label %23, label %29

23:                                               ; preds = %18
  %24 = load ptr, ptr %0, align 8
  %25 = tail call ptr @__errno_location() #12
  %26 = load i32, ptr %25, align 4
  %27 = tail call ptr @slurm_strerror(i32 noundef %26) #10
  %28 = tail call ptr @slurm_persist_make_rc_msg(ptr noundef %24, i32 noundef %26, ptr noundef %27, i16 noundef zeroext 1466) #10
  store ptr %28, ptr %1, align 8
  br label %38

29:                                               ; preds = %18, %16
  %30 = tail call ptr @init_buf(i32 noundef 1024) #10
  store ptr %30, ptr %1, align 8
  tail call void @pack16(i16 noundef zeroext 1467, ptr noundef %30) #10
  %31 = load ptr, ptr %0, align 8
  %32 = getelementptr inbounds nuw i8, ptr %31, i64 168
  %33 = load i16, ptr %32, align 8
  %34 = load ptr, ptr %1, align 8
  call void @slurmdbd_pack_list_msg(ptr noundef nonnull %4, i16 noundef zeroext %33, i32 noundef 1467, ptr noundef %34) #10
  %35 = load ptr, ptr %4, align 8
  %.not = icmp eq ptr %35, null
  br i1 %.not, label %37, label %36

36:                                               ; preds = %29
  call void @list_destroy(ptr noundef nonnull %35) #10
  br label %37

37:                                               ; preds = %36, %29
  store ptr null, ptr %4, align 8
  br label %38

38:                                               ; preds = %37, %23
  %.0 = phi i32 [ 0, %37 ], [ -1, %23 ]
  call void @slurm_xfree(ptr noundef nonnull %3) #10
  call void @llvm.lifetime.end.p0(i64 16, ptr nonnull %4) #10
  call void @llvm.lifetime.end.p0(i64 8, ptr nonnull %3) #10
  ret i32 %.0
}